; Function Attrs: null_pointer_is_valid sspstrong uwtable
define internal void @dissect_gtpv2_timer_in_seconds(ptr noundef %0, ptr noundef %1, ptr noundef %2, ptr readnone captures(none) %3, i16 noundef zeroext %4, i8 zeroext %5, i8 zeroext %6, ptr readnone captures(none) %7) #1 {
  %9 = load i32, ptr @hf_gtpv2_nf_timer_in_seconds_timer_value, align 4
  %10 = tail call ptr @proto_tree_add_item(ptr noundef %2, i32 noundef %9, ptr noundef %0, i32 noundef 0, i32 noundef 3, i32 noundef 0)
  %11 = icmp ugt i16 %4, 4
  br i1 %11, label %12, label %16

12:                                               ; preds = %8
  %13 = zext i16 %4 to i32
  %14 = add nsw i32 %13, -4
  %15 = tail call ptr @proto_tree_add_expert(ptr noundef %2, ptr noundef %1, ptr noundef nonnull @ei_gtpv2_ie_data_not_dissected, ptr noundef %0, i32 noundef 3, i32 noundef %14)
  br label %16

16:                                               ; preds = %12, %8
  ret void
}